target datalayout = "e-m:e-p270:32:32-p271:32:32-p272:64:64-i64:64-i128:128-f80:128-n8:16:32:64-S128"
target triple = "x86_64-pc-linux-gnu"

%struct.SwsFilterDescriptor = type { ptr, ptr, i32, ptr, ptr }
%struct.SwsSlice = type { i32, i32, i32, i32, i32, i32, [4 x %struct.SwsPlane] }
%struct.SwsPlane = type { i32, i32, i32, ptr, ptr }
%struct.AVPixFmtDescriptor = type { ptr, i8, i8, i8, i64, [4 x %struct.AVComponentDescriptor], ptr }
%struct.AVComponentDescriptor = type { i32, i32, i32, i32, i32 }
%struct.FilterContext = type { ptr, ptr, i32, i32 }

@.str = private unnamed_addr constant [30 x i8] c"Assertion %s failed at %s:%d\0A\00", align 1
@.str.1 = private unnamed_addr constant [5 x i8] c"desc\00", align 1
@.str.2 = private unnamed_addr constant [30 x i8] c"libswscale/swscale_internal.h\00", align 1

; Function Attrs: alwaysinline nounwind uwtable
define internal i32 @isALPHA(i32 noundef %0) #3 {
  %2 = alloca i32, align 4
  %3 = alloca i32, align 4
  %4 = alloca ptr, align 8
  %5 = alloca i32, align 4
  store i32 %0, ptr %3, align 4, !tbaa !26
  call void @llvm.lifetime.start.p0(i64 8, ptr %4) #6
  %6 = load i32, ptr %3, align 4, !tbaa !26
  %7 = call ptr @av_pix_fmt_desc_get(i32 noundef %6)
  store ptr %7, ptr %4, align 8, !tbaa !27
  br label %8

8:                                                ; preds = %1
  %9 = load ptr, ptr %4, align 8, !tbaa !27
  %10 = icmp ne ptr %9, null
  br i1 %10, label %12, label %11

11:                                               ; preds = %8
  call void (ptr, i32, ptr, ...) @av_log(ptr noundef null, i32 noundef 0, ptr noundef @.str, ptr noundef @.str.1, ptr noundef @.str.2, i32 noundef 881)
  call void @abort() #7
  unreachable

12:                                               ; preds = %8
  br label %13

13:                                               ; preds = %12
  br label %14

14:                                               ; preds = %13
  %15 = load i32, ptr %3, align 4, !tbaa !26
  %16 = icmp eq i32 %15, 11
  br i1 %16, label %17, label %18

17:                                               ; preds = %14
  store i32 1, ptr %2, align 4
  store i32 1, ptr %5, align 4
  br label %24

18:                                               ; preds = %14
  %19 = load ptr, ptr %4, align 8, !tbaa !27
  %20 = getelementptr inbounds nuw %struct.AVPixFmtDescriptor, ptr %19, i32 0, i32 4
  %21 = load i64, ptr %20, align 8, !tbaa !29
  %22 = and i64 %21, 128
  %23 = trunc i64 %22 to i32
  store i32 %23, ptr %2, align 4
  store i32 1, ptr %5, align 4
  br label %24

24:                                               ; preds = %18, %17
  call void @llvm.lifetime.end.p0(i64 8, ptr %4) #6
  %25 = load i32, ptr %2, align 4
  ret i32 %25
}

; Function Attrs: nounwind uwtable
define i32 @ff_init_desc_chscale(ptr noundef %0, ptr noundef %1, ptr noundef %2, ptr noundef %3, ptr noundef %4, i32 noundef %5, i32 noundef %6) #0 {
  %8 = alloca i32, align 4
  %9 = alloca ptr, align 8
  %10 = alloca ptr, align 8
  %11 = alloca ptr, align 8
  %12 = alloca ptr, align 8
  %13 = alloca ptr, align 8
  %14 = alloca i32, align 4
  %15 = alloca i32, align 4
  %16 = alloca ptr, align 8
  %17 = alloca i32, align 4
  store ptr %0, ptr %9, align 8, !tbaa !4
  store ptr %1, ptr %10, align 8, !tbaa !9
  store ptr %2, ptr %11, align 8, !tbaa !9
  store ptr %3, ptr %12, align 8, !tbaa !63
  store ptr %4, ptr %13, align 8, !tbaa !11
  store i32 %5, ptr %14, align 4, !tbaa !26
  store i32 %6, ptr %15, align 4, !tbaa !26
  call void @llvm.lifetime.start.p0(i64 8, ptr %16) #6
  %18 = call noalias ptr @av_malloc(i64 noundef 24)
  store ptr %18, ptr %16, align 8, !tbaa !64
  %19 = load ptr, ptr %16, align 8, !tbaa !64
  %20 = icmp ne ptr %19, null
  br i1 %20, label %22, label %21

21:                                               ; preds = %7
  store i32 -12, ptr %8, align 4
  store i32 1, ptr %17, align 4
  br label %62

22:                                               ; preds = %7
  %23 = load ptr, ptr %12, align 8, !tbaa !63
  %24 = load ptr, ptr %16, align 8, !tbaa !64
  %25 = getelementptr inbounds nuw %struct.FilterContext, ptr %24, i32 0, i32 0
  store ptr %23, ptr %25, align 8, !tbaa !66
  %26 = load ptr, ptr %13, align 8, !tbaa !11
  %27 = load ptr, ptr %16, align 8, !tbaa !64
  %28 = getelementptr inbounds nuw %struct.FilterContext, ptr %27, i32 0, i32 1
  store ptr %26, ptr %28, align 8, !tbaa !68
  %29 = load i32, ptr %14, align 4, !tbaa !26
  %30 = load ptr, ptr %16, align 8, !tbaa !64
  %31 = getelementptr inbounds nuw %struct.FilterContext, ptr %30, i32 0, i32 2
  store i32 %29, ptr %31, align 8, !tbaa !69
  %32 = load i32, ptr %15, align 4, !tbaa !26
  %33 = load ptr, ptr %16, align 8, !tbaa !64
  %34 = getelementptr inbounds nuw %struct.FilterContext, ptr %33, i32 0, i32 3
  store i32 %32, ptr %34, align 4, !tbaa !70
  %35 = load ptr, ptr %16, align 8, !tbaa !64
  %36 = load ptr, ptr %9, align 8, !tbaa !4
  %37 = getelementptr inbounds nuw %struct.SwsFilterDescriptor, ptr %36, i32 0, i32 3
  store ptr %35, ptr %37, align 8, !tbaa !17
  %38 = load ptr, ptr %10, align 8, !tbaa !9
  %39 = getelementptr inbounds nuw %struct.SwsSlice, ptr %38, i32 0, i32 5
  %40 = load i32, ptr %39, align 4, !tbaa !20
  %41 = call i32 @isALPHA(i32 noundef %40)
  %42 = icmp ne i32 %41, 0
  br i1 %42, label %43, label %49

43:                                               ; preds = %22
  %44 = load ptr, ptr %11, align 8, !tbaa !9
  %45 = getelementptr inbounds nuw %struct.SwsSlice, ptr %44, i32 0, i32 5
  %46 = load i32, ptr %45, align 4, !tbaa !20
  %47 = call i32 @isALPHA(i32 noundef %46)
  %48 = icmp ne i32 %47, 0
  br label %49

49:                                               ; preds = %43, %22
  %50 = phi i1 [ false, %22 ], [ %48, %43 ]
  %51 = zext i1 %50 to i32
  %52 = load ptr, ptr %9, align 8, !tbaa !4
  %53 = getelementptr inbounds nuw %struct.SwsFilterDescriptor, ptr %52, i32 0, i32 2
  store i32 %51, ptr %53, align 8, !tbaa !22
  %54 = load ptr, ptr %10, align 8, !tbaa !9
  %55 = load ptr, ptr %9, align 8, !tbaa !4
  %56 = getelementptr inbounds nuw %struct.SwsFilterDescriptor, ptr %55, i32 0, i32 0
  store ptr %54, ptr %56, align 8, !tbaa !23
  %57 = load ptr, ptr %11, align 8, !tbaa !9
  %58 = load ptr, ptr %9, align 8, !tbaa !4
  %59 = getelementptr inbounds nuw %struct.SwsFilterDescriptor, ptr %58, i32 0, i32 1
  store ptr %57, ptr %59, align 8, !tbaa !24
  %60 = load ptr, ptr %9, align 8, !tbaa !4
  %61 = getelementptr inbounds nuw %struct.SwsFilterDescriptor, ptr %60, i32 0, i32 4
  store ptr @chr_h_scale, ptr %61, align 8, !tbaa !25
  store i32 0, ptr %8, align 4
  store i32 1, ptr %17, align 4
  br label %62

62:                                               ; preds = %49, %21
  call void @llvm.lifetime.end.p0(i64 8, ptr %16) #6
  %63 = load i32, ptr %8, align 4
  ret i32 %63
}